target datalayout = "e-m:e-p270:32:32-p271:32:32-p272:64:64-i64:64-i128:128-f80:128-n8:16:32:64-S128"
target triple = "x86_64-unknown-linux-gnu"

%"class.Imf_3_2::RleCompressor" = type { %"class.Imf_3_2::Compressor", i32, ptr, ptr }
%"class.Imf_3_2::Compressor" = type { ptr, ptr }

@.str.1 = private unnamed_addr constant [28 x i8] c"Data decoding (rle) failed.\00", align 1
@_ZTIN7Iex_3_28InputExcE = external constant ptr

; Function Attrs: mustprogress uwtable
define hidden noundef i32 @_ZN7Imf_3_213RleCompressor10uncompressEPKciiRS2_(ptr noundef nonnull align 8 dereferenceable(40) %this, ptr noundef %inPtr, i32 noundef %inSize, i32 noundef %minY, ptr noundef nonnull align 8 dereferenceable(8) %outPtr) unnamed_addr #4 align 2 personality ptr @__gxx_personality_v0 {
entry:
  %retval = alloca i32, align 4
  %this.addr = alloca ptr, align 8
  %inPtr.addr = alloca ptr, align 8
  %inSize.addr = alloca i32, align 4
  %minY.addr = alloca i32, align 4
  %outPtr.addr = alloca ptr, align 8
  %outSize = alloca i32, align 4
  %exn.slot = alloca ptr, align 8
  %ehselector.slot = alloca i32, align 4
  %t = alloca ptr, align 8
  %stop = alloca ptr, align 8
  %d = alloca i32, align 4
  %t1 = alloca ptr, align 8
  %t2 = alloca ptr, align 8
  %s = alloca ptr, align 8
  %stop19 = alloca ptr, align 8
  store ptr %this, ptr %this.addr, align 8
  store ptr %inPtr, ptr %inPtr.addr, align 8
  store i32 %inSize, ptr %inSize.addr, align 4
  store i32 %minY, ptr %minY.addr, align 4
  store ptr %outPtr, ptr %outPtr.addr, align 8
  %this1 = load ptr, ptr %this.addr, align 8
  %0 = load i32, ptr %inSize.addr, align 4
  %cmp = icmp eq i32 %0, 0
  br i1 %cmp, label %if.then, label %if.end

if.then:                                          ; preds = %entry
  %_outBuffer = getelementptr inbounds %"class.Imf_3_2::RleCompressor", ptr %this1, i32 0, i32 3
  %1 = load ptr, ptr %_outBuffer, align 8
  %2 = load ptr, ptr %outPtr.addr, align 8
  store ptr %1, ptr %2, align 8
  store i32 0, ptr %retval, align 4
  br label %return

if.end:                                           ; preds = %entry
  %3 = load i32, ptr %inSize.addr, align 4
  %_maxScanLineSize = getelementptr inbounds %"class.Imf_3_2::RleCompressor", ptr %this1, i32 0, i32 1
  %4 = load i32, ptr %_maxScanLineSize, align 8
  %5 = load ptr, ptr %inPtr.addr, align 8
  %_tmpBuffer = getelementptr inbounds %"class.Imf_3_2::RleCompressor", ptr %this1, i32 0, i32 2
  %6 = load ptr, ptr %_tmpBuffer, align 8
  %call = call noundef i32 @_ZN7Imf_3_213rleUncompressEiiPKaPc(i32 noundef %3, i32 noundef %4, ptr noundef %5, ptr noundef %6)
  store i32 %call, ptr %outSize, align 4
  %cmp2 = icmp eq i32 0, %call
  br i1 %cmp2, label %if.then3, label %if.end4

if.then3:                                         ; preds = %if.end
  %exception = call ptr @__cxa_allocate_exception(i64 72) #3
  invoke void @_ZN7Iex_3_28InputExcC1EPKc(ptr noundef nonnull align 8 dereferenceable(72) %exception, ptr noundef @.str.1)
          to label %invoke.cont unwind label %lpad

invoke.cont:                                      ; preds = %if.then3
  call void @__cxa_throw(ptr %exception, ptr @_ZTIN7Iex_3_28InputExcE, ptr @_ZN7Iex_3_28InputExcD1Ev) #8
  unreachable

lpad:                                             ; preds = %if.then3
  %7 = landingpad { ptr, i32 }
          cleanup
  %8 = extractvalue { ptr, i32 } %7, 0
  store ptr %8, ptr %exn.slot, align 8
  %9 = extractvalue { ptr, i32 } %7, 1
  store i32 %9, ptr %ehselector.slot, align 4
  call void @__cxa_free_exception(ptr %exception) #3
  br label %eh.resume

if.end4:                                          ; preds = %if.end
  %_tmpBuffer5 = getelementptr inbounds %"class.Imf_3_2::RleCompressor", ptr %this1, i32 0, i32 2
  %10 = load ptr, ptr %_tmpBuffer5, align 8
  %add.ptr = getelementptr inbounds i8, ptr %10, i64 1
  store ptr %add.ptr, ptr %t, align 8
  %_tmpBuffer6 = getelementptr inbounds %"class.Imf_3_2::RleCompressor", ptr %this1, i32 0, i32 2
  %11 = load ptr, ptr %_tmpBuffer6, align 8
  %12 = load i32, ptr %outSize, align 4
  %idx.ext = sext i32 %12 to i64
  %add.ptr7 = getelementptr inbounds i8, ptr %11, i64 %idx.ext
  store ptr %add.ptr7, ptr %stop, align 8
  br label %while.cond

while.cond:                                       ; preds = %while.body, %if.end4
  %13 = load ptr, ptr %t, align 8
  %14 = load ptr, ptr %stop, align 8
  %cmp8 = icmp ult ptr %13, %14
  br i1 %cmp8, label %while.body, label %while.end

while.body:                                       ; preds = %while.cond
  %15 = load ptr, ptr %t, align 8
  %arrayidx = getelementptr inbounds i8, ptr %15, i64 -1
  %16 = load i8, ptr %arrayidx, align 1
  %conv = zext i8 %16 to i32
  %17 = load ptr, ptr %t, align 8
  %arrayidx9 = getelementptr inbounds i8, ptr %17, i64 0
  %18 = load i8, ptr %arrayidx9, align 1
  %conv10 = zext i8 %18 to i32
  %add = add nsw i32 %conv, %conv10
  %sub = sub nsw i32 %add, 128
  store i32 %sub, ptr %d, align 4
  %19 = load i32, ptr %d, align 4
  %conv11 = trunc i32 %19 to i8
  %20 = load ptr, ptr %t, align 8
  %arrayidx12 = getelementptr inbounds i8, ptr %20, i64 0
  store i8 %conv11, ptr %arrayidx12, align 1
  %21 = load ptr, ptr %t, align 8
  %incdec.ptr = getelementptr inbounds i8, ptr %21, i32 1
  store ptr %incdec.ptr, ptr %t, align 8
  br label %while.cond, !llvm.loop !7

while.end:                                        ; preds = %while.cond
  %_tmpBuffer13 = getelementptr inbounds %"class.Imf_3_2::RleCompressor", ptr %this1, i32 0, i32 2
  %22 = load ptr, ptr %_tmpBuffer13, align 8
  store ptr %22, ptr %t1, align 8
  %_tmpBuffer14 = getelementptr inbounds %"class.Imf_3_2::RleCompressor", ptr %this1, i32 0, i32 2
  %23 = load ptr, ptr %_tmpBuffer14, align 8
  %24 = load i32, ptr %outSize, align 4
  %add15 = add nsw i32 %24, 1
  %div = sdiv i32 %add15, 2
  %idx.ext16 = sext i32 %div to i64
  %add.ptr17 = getelementptr inbounds i8, ptr %23, i64 %idx.ext16
  store ptr %add.ptr17, ptr %t2, align 8
  %_outBuffer18 = getelementptr inbounds %"class.Imf_3_2::RleCompressor", ptr %this1, i32 0, i32 3
  %25 = load ptr, ptr %_outBuffer18, align 8
  store ptr %25, ptr %s, align 8
  %26 = load ptr, ptr %s, align 8
  %27 = load i32, ptr %outSize, align 4
  %idx.ext20 = sext i32 %27 to i64
  %add.ptr21 = getelementptr inbounds i8, ptr %26, i64 %idx.ext20
  store ptr %add.ptr21, ptr %stop19, align 8
  br label %while.body23

while.body23:                                     ; preds = %if.end34, %while.end
  %28 = load ptr, ptr %s, align 8
  %29 = load ptr, ptr %stop19, align 8
  %cmp24 = icmp ult ptr %28, %29
  br i1 %cmp24, label %if.then25, label %if.else

if.then25:                                        ; preds = %while.body23
  %30 = load ptr, ptr %t1, align 8
  %incdec.ptr26 = getelementptr inbounds i8, ptr %30, i32 1
  store ptr %incdec.ptr26, ptr %t1, align 8
  %31 = load i8, ptr %30, align 1
  %32 = load ptr, ptr %s, align 8
  %incdec.ptr27 = getelementptr inbounds i8, ptr %32, i32 1
  store ptr %incdec.ptr27, ptr %s, align 8
  store i8 %31, ptr %32, align 1
  br label %if.end28

if.else:                                          ; preds = %while.body23
  br label %while.end35

if.end28:                                         ; preds = %if.then25
  %33 = load ptr, ptr %s, align 8
  %34 = load ptr, ptr %stop19, align 8
  %cmp29 = icmp ult ptr %33, %34
  br i1 %cmp29, label %if.then30, label %if.else33

if.then30:                                        ; preds = %if.end28
  %35 = load ptr, ptr %t2, align 8
  %incdec.ptr31 = getelementptr inbounds i8, ptr %35, i32 1
  store ptr %incdec.ptr31, ptr %t2, align 8
  %36 = load i8, ptr %35, align 1
  %37 = load ptr, ptr %s, align 8
  %incdec.ptr32 = getelementptr inbounds i8, ptr %37, i32 1
  store ptr %incdec.ptr32, ptr %s, align 8
  store i8 %36, ptr %37, align 1
  br label %if.end34

if.else33:                                        ; preds = %if.end28
  br label %while.end35

if.end34:                                         ; preds = %if.then30
  br label %while.body23, !llvm.loop !8

while.end35:                                      ; preds = %if.else33, %if.else
  %_outBuffer36 = getelementptr inbounds %"class.Imf_3_2::RleCompressor", ptr %this1, i32 0, i32 3
  %38 = load ptr, ptr %_outBuffer36, align 8
  %39 = load ptr, ptr %outPtr.addr, align 8
  store ptr %38, ptr %39, align 8
  %40 = load i32, ptr %outSize, align 4
  store i32 %40, ptr %retval, align 4
  br label %return

return:                                           ; preds = %while.end35, %if.then
  %41 = load i32, ptr %retval, align 4
  ret i32 %41

eh.resume:                                        ; preds = %lpad
  %exn = load ptr, ptr %exn.slot, align 8
  %sel = load i32, ptr %ehselector.slot, align 4
  %lpad.val = insertvalue { ptr, i32 } poison, ptr %exn, 0
  %lpad.val37 = insertvalue { ptr, i32 } %lpad.val, i32 %sel, 1
  resume { ptr, i32 } %lpad.val37
}