; Function Attrs: mustprogress uwtable
define hidden noundef i32 @_ZN7Imf_3_213RleCompressor10uncompressEPKciiRS2_(ptr nocapture noundef nonnull readonly align 8 dereferenceable(40) %this, ptr noundef %inPtr, i32 noundef %inSize, i32 %minY, ptr nocapture noundef nonnull writeonly align 8 dereferenceable(8) %outPtr) unnamed_addr #3 align 2 personality ptr @__gxx_personality_v0 {
entry:
  %cmp = icmp eq i32 %inSize, 0
  br i1 %cmp, label %if.then, label %if.end

if.then:                                          ; preds = %entry
  %_outBuffer = getelementptr inbounds i8, ptr %this, i64 32
  br label %return

if.end:                                           ; preds = %entry
  %_maxScanLineSize = getelementptr inbounds i8, ptr %this, i64 16
  %0 = load i32, ptr %_maxScanLineSize, align 8
  %_tmpBuffer = getelementptr inbounds i8, ptr %this, i64 24
  %1 = load ptr, ptr %_tmpBuffer, align 8
  %call = tail call noundef i32 @_ZN7Imf_3_213rleUncompressEiiPKaPc(i32 noundef %inSize, i32 noundef %0, ptr noundef %inPtr, ptr noundef %1)
  %cmp2 = icmp eq i32 %call, 0
  br i1 %cmp2, label %if.then3, label %if.end4

if.then3:                                         ; preds = %if.end
  %exception = tail call ptr @__cxa_allocate_exception(i64 72) #10
  invoke void @_ZN7Iex_3_28InputExcC1EPKc(ptr noundef nonnull align 8 dereferenceable(72) %exception, ptr noundef nonnull @.str.1)
          to label %invoke.cont unwind label %lpad

invoke.cont:                                      ; preds = %if.then3
  tail call void @__cxa_throw(ptr nonnull %exception, ptr nonnull @_ZTIN7Iex_3_28InputExcE, ptr nonnull @_ZN7Iex_3_28InputExcD1Ev) #11
  unreachable

lpad:                                             ; preds = %if.then3
  %2 = landingpad { ptr, i32 }
          cleanup
  tail call void @__cxa_free_exception(ptr %exception) #10
  resume { ptr, i32 } %2

if.end4:                                          ; preds = %if.end
  %3 = load ptr, ptr %_tmpBuffer, align 8
  %idx.ext = sext i32 %call to i64
  %add.ptr7 = getelementptr inbounds i8, ptr %3, i64 %idx.ext
  %cmp816 = icmp sgt i32 %call, 1
  br i1 %cmp816, label %while.body.preheader, label %while.end

while.body.preheader:                             ; preds = %if.end4
  %t.015 = getelementptr inbounds i8, ptr %3, i64 1
  %.pre = load i8, ptr %3, align 1
  br label %while.body

while.body:                                       ; preds = %while.body.preheader, %while.body
  %4 = phi i8 [ %sub, %while.body ], [ %.pre, %while.body.preheader ]
  %t.018 = phi ptr [ %t.0, %while.body ], [ %t.015, %while.body.preheader ]
  %5 = load i8, ptr %t.018, align 1
  %add = add i8 %5, %4
  %sub = xor i8 %add, -128
  store i8 %sub, ptr %t.018, align 1
  %t.0 = getelementptr inbounds i8, ptr %t.018, i64 1
  %cmp8 = icmp ult ptr %t.0, %add.ptr7
  br i1 %cmp8, label %while.body, label %while.end.loopexit, !llvm.loop !7

while.end.loopexit:                               ; preds = %while.body
  %.pre23 = load ptr, ptr %_tmpBuffer, align 8
  br label %while.end

while.end:                                        ; preds = %while.end.loopexit, %if.end4
  %6 = phi ptr [ %.pre23, %while.end.loopexit ], [ %3, %if.end4 ]
  %_outBuffer18 = getelementptr inbounds i8, ptr %this, i64 32
  %7 = load ptr, ptr %_outBuffer18, align 8
  %add.ptr21 = getelementptr inbounds i8, ptr %7, i64 %idx.ext
  %cmp2419 = icmp sgt i32 %call, 0
  br i1 %cmp2419, label %if.then25.preheader, label %return

if.then25.preheader:                              ; preds = %while.end
  %add15 = add nuw nsw i32 %call, 1
  %div2425 = lshr i32 %add15, 1
  %idx.ext16 = zext nneg i32 %div2425 to i64
  %add.ptr17 = getelementptr inbounds i8, ptr %6, i64 %idx.ext16
  br label %if.then25

if.then25:                                        ; preds = %if.then25.preheader, %if.then30
  %s.022 = phi ptr [ %incdec.ptr32, %if.then30 ], [ %7, %if.then25.preheader ]
  %t2.021 = phi ptr [ %incdec.ptr31, %if.then30 ], [ %add.ptr17, %if.then25.preheader ]
  %t1.020 = phi ptr [ %incdec.ptr26, %if.then30 ], [ %6, %if.then25.preheader ]
  %8 = load i8, ptr %t1.020, align 1
  %incdec.ptr27 = getelementptr inbounds i8, ptr %s.022, i64 1
  store i8 %8, ptr %s.022, align 1
  %cmp29 = icmp ult ptr %incdec.ptr27, %add.ptr21
  br i1 %cmp29, label %if.then30, label %return

if.then30:                                        ; preds = %if.then25
  %incdec.ptr26 = getelementptr inbounds i8, ptr %t1.020, i64 1
  %incdec.ptr31 = getelementptr inbounds i8, ptr %t2.021, i64 1
  %9 = load i8, ptr %t2.021, align 1
  %incdec.ptr32 = getelementptr inbounds i8, ptr %s.022, i64 2
  store i8 %9, ptr %incdec.ptr27, align 1
  %cmp24 = icmp ult ptr %incdec.ptr32, %add.ptr21
  br i1 %cmp24, label %if.then25, label %return, !llvm.loop !8

return:                                           ; preds = %if.then25, %if.then30, %while.end, %if.then
  %storemerge.in = phi ptr [ %_outBuffer, %if.then ], [ %_outBuffer18, %while.end ], [ %_outBuffer18, %if.then30 ], [ %_outBuffer18, %if.then25 ]
  %retval.0 = phi i32 [ 0, %if.then ], [ %call, %while.end ], [ %call, %if.then30 ], [ %call, %if.then25 ]
  %storemerge = load ptr, ptr %storemerge.in, align 8
  store ptr %storemerge, ptr %outPtr, align 8
  ret i32 %retval.0
}